target datalayout = "e-m:e-p270:32:32-p271:32:32-p272:64:64-i64:64-i128:128-f80:128-n8:16:32:64-S128"
target triple = "x86_64-pc-linux-gnu"

%struct.AVFilterContext = type { ptr, ptr, ptr, ptr, ptr, i32, ptr, ptr, i32, ptr, ptr, i32, i32, ptr, ptr, ptr, ptr, i32, ptr, i32, i32 }
%struct.ColorSpaceContext = type { ptr, %struct.ColorSpaceDSPContext, i32, i32, i32, i32, i32, i32, i32, i32, i32, i32, i32, i32, i32, i32, i32, i32, i32, i32, i32, i32, i32, i32, i32, [3 x ptr], i64, i32, [3 x [2 x ptr]], [3 x [2 x ptr]], ptr, ptr, i32, [4 x i8], [3 x [3 x [8 x i16]]], ptr, ptr, i32, ptr, ptr, ptr, ptr, i32, i32, [3 x [3 x [8 x i16]]], [3 x [3 x [8 x i16]]], [3 x [3 x [8 x i16]]], [2 x [8 x i16]], ptr, ptr, ptr, ptr, [3 x [3 x double]], [3 x [3 x double]], i32, i32, i32, i32, i32, [12 x i8] }
%struct.ColorSpaceDSPContext = type { [3 x [3 x ptr]], [3 x [3 x ptr]], [3 x [3 x ptr]], [3 x [3 x [3 x ptr]]], ptr }

@.str.15 = private unnamed_addr constant [39 x i8] c"Input range not set, assuming tv/mpeg\0A\00", align 1

; Function Attrs: nounwind uwtable
define internal i32 @get_range_off(ptr noundef %0, ptr noundef %1, ptr noundef %2, ptr noundef %3, i32 noundef %4, i32 noundef %5) #1 {
  %7 = alloca i32, align 4
  %8 = alloca ptr, align 8
  %9 = alloca ptr, align 8
  %10 = alloca ptr, align 8
  %11 = alloca ptr, align 8
  %12 = alloca i32, align 4
  %13 = alloca i32, align 4
  %14 = alloca ptr, align 8
  store ptr %0, ptr %8, align 8, !tbaa !4
  store ptr %1, ptr %9, align 8, !tbaa !80
  store ptr %2, ptr %10, align 8, !tbaa !80
  store ptr %3, ptr %11, align 8, !tbaa !80
  store i32 %4, ptr %12, align 4, !tbaa !33
  store i32 %5, ptr %13, align 4, !tbaa !33
  %15 = load i32, ptr %12, align 4, !tbaa !33
  switch i32 %15, label %50 [
    i32 0, label %16
    i32 1, label %29
    i32 2, label %42
  ]

16:                                               ; preds = %6
  call void @llvm.lifetime.start.p0(i64 8, ptr %14) #9
  %17 = load ptr, ptr %8, align 8, !tbaa !4
  %18 = getelementptr inbounds nuw %struct.AVFilterContext, ptr %17, i32 0, i32 9
  %19 = load ptr, ptr %18, align 8, !tbaa !9
  store ptr %19, ptr %14, align 8, !tbaa !22
  %20 = load ptr, ptr %14, align 8, !tbaa !22
  %21 = getelementptr inbounds nuw %struct.ColorSpaceContext, ptr %20, i32 0, i32 58
  %22 = load i32, ptr %21, align 16, !tbaa !159
  %23 = icmp ne i32 %22, 0
  br i1 %23, label %28, label %24

24:                                               ; preds = %16
  %25 = load ptr, ptr %8, align 8, !tbaa !4
  call void (ptr, i32, ptr, ...) @av_log(ptr noundef %25, i32 noundef 24, ptr noundef @.str.15)
  %26 = load ptr, ptr %14, align 8, !tbaa !22
  %27 = getelementptr inbounds nuw %struct.ColorSpaceContext, ptr %26, i32 0, i32 58
  store i32 1, ptr %27, align 16, !tbaa !159
  br label %28

28:                                               ; preds = %24, %16
  call void @llvm.lifetime.end.p0(i64 8, ptr %14) #9
  br label %29

29:                                               ; preds = %6, %28
  %30 = load i32, ptr %13, align 4, !tbaa !33
  %31 = sub nsw i32 %30, 8
  %32 = shl i32 16, %31
  %33 = load ptr, ptr %9, align 8, !tbaa !80
  store i32 %32, ptr %33, align 4, !tbaa !33
  %34 = load i32, ptr %13, align 4, !tbaa !33
  %35 = sub nsw i32 %34, 8
  %36 = shl i32 219, %35
  %37 = load ptr, ptr %10, align 8, !tbaa !80
  store i32 %36, ptr %37, align 4, !tbaa !33
  %38 = load i32, ptr %13, align 4, !tbaa !33
  %39 = sub nsw i32 %38, 8
  %40 = shl i32 224, %39
  %41 = load ptr, ptr %11, align 8, !tbaa !80
  store i32 %40, ptr %41, align 4, !tbaa !33
  br label %51

42:                                               ; preds = %6
  %43 = load ptr, ptr %9, align 8, !tbaa !80
  store i32 0, ptr %43, align 4, !tbaa !33
  %44 = load i32, ptr %13, align 4, !tbaa !33
  %45 = sub nsw i32 %44, 8
  %46 = shl i32 256, %45
  %47 = sub nsw i32 %46, 1
  %48 = load ptr, ptr %11, align 8, !tbaa !80
  store i32 %47, ptr %48, align 4, !tbaa !33
  %49 = load ptr, ptr %10, align 8, !tbaa !80
  store i32 %47, ptr %49, align 4, !tbaa !33
  br label %51

50:                                               ; preds = %6
  store i32 -22, ptr %7, align 4
  br label %52

51:                                               ; preds = %42, %29
  store i32 0, ptr %7, align 4
  br label %52

52:                                               ; preds = %51, %50
  %53 = load i32, ptr %7, align 4
  ret i32 %53
}