; Function Attrs: nounwind uwtable
define internal fastcc range(i32 -22, 1) i32 @get_range_off(ptr noundef %0, ptr noundef nonnull writeonly captures(none) %1, ptr noundef writeonly captures(none) %2, ptr noundef writeonly captures(none) %3, i32 noundef %4, i32 noundef %5) unnamed_addr #1 {
  switch i32 %4, label %22 [
    i32 0, label %7
    i32 1, label %13
    i32 2, label %18
  ]

7:                                                ; preds = %6
  %8 = getelementptr inbounds nuw i8, ptr %0, i64 72
  %9 = load ptr, ptr %8, align 8, !tbaa !4
  %10 = getelementptr inbounds nuw i8, ptr %9, i64 1568
  %11 = load i32, ptr %10, align 16, !tbaa !145
  %.not = icmp eq i32 %11, 0
  br i1 %.not, label %12, label %13

12:                                               ; preds = %7
  tail call void (ptr, i32, ptr, ...) @av_log(ptr noundef nonnull %0, i32 noundef 24, ptr noundef nonnull @.str.15) #9
  store i32 1, ptr %10, align 16, !tbaa !145
  br label %13

13:                                               ; preds = %7, %12, %6
  %14 = add nsw i32 %5, -8
  %15 = shl i32 16, %14
  store i32 %15, ptr %1, align 4, !tbaa !29
  %16 = shl i32 219, %14
  store i32 %16, ptr %2, align 4, !tbaa !29
  %17 = shl i32 224, %14
  store i32 %17, ptr %3, align 4, !tbaa !29
  br label %22

18:                                               ; preds = %6
  store i32 0, ptr %1, align 4, !tbaa !29
  %19 = add nsw i32 %5, -8
  %20 = shl i32 256, %19
  %21 = add nsw i32 %20, -1
  store i32 %21, ptr %3, align 4, !tbaa !29
  store i32 %21, ptr %2, align 4, !tbaa !29
  br label %22

22:                                               ; preds = %13, %18, %6
  %.0 = phi i32 [ -22, %6 ], [ 0, %18 ], [ 0, %13 ]
  ret i32 %.0
}